; Function Attrs: nounwind uwtable
define range(i32 -50, 1) i32 @CVodeGetQuadSensErrWeights(ptr noundef %0, ptr noundef readonly captures(none) %1) local_unnamed_addr #0 {
  %3 = icmp eq ptr %0, null
  br i1 %3, label %4, label %5

4:                                                ; preds = %2
  tail call void (ptr, i32, ptr, ptr, ptr, ...) @cvProcessError(ptr noundef null, i32 noundef -21, ptr noundef nonnull @.str, ptr noundef nonnull @.str.70, ptr noundef nonnull @.str.2) #6
  br label %.loopexit

5:                                                ; preds = %2
  %6 = getelementptr inbounds nuw i8, ptr %0, i64 256
  %7 = load i32, ptr %6, align 8, !tbaa !89
  %8 = icmp eq i32 %7, 0
  br i1 %8, label %9, label %10

9:                                                ; preds = %5
  tail call void (ptr, i32, ptr, ptr, ptr, ...) @cvProcessError(ptr noundef nonnull %0, i32 noundef -50, ptr noundef nonnull @.str, ptr noundef nonnull @.str.70, ptr noundef nonnull @.str.41) #6
  br label %.loopexit

10:                                               ; preds = %5
  %11 = getelementptr inbounds nuw i8, ptr %0, i64 140
  %12 = load i32, ptr %11, align 4, !tbaa !54
  %13 = getelementptr inbounds nuw i8, ptr %0, i64 284
  %14 = load i32, ptr %13, align 4, !tbaa !64
  %.not = icmp ne i32 %14, 0
  %15 = icmp sgt i32 %12, 0
  %or.cond = select i1 %.not, i1 %15, i1 false
  br i1 %or.cond, label %.lr.ph, label %.loopexit

.lr.ph:                                           ; preds = %10
  %16 = getelementptr inbounds nuw i8, ptr %0, i64 856
  %wide.trip.count = zext nneg i32 %12 to i64
  br label %17

17:                                               ; preds = %.lr.ph, %17
  %indvars.iv = phi i64 [ 0, %.lr.ph ], [ %indvars.iv.next, %17 ]
  %18 = load ptr, ptr %16, align 8, !tbaa !92
  %19 = getelementptr inbounds nuw ptr, ptr %18, i64 %indvars.iv
  %20 = load ptr, ptr %19, align 8, !tbaa !93
  %21 = getelementptr inbounds nuw ptr, ptr %1, i64 %indvars.iv
  %22 = load ptr, ptr %21, align 8, !tbaa !93
  tail call void @N_VScale(double noundef 1.000000e+00, ptr noundef %20, ptr noundef %22) #6
  %indvars.iv.next = add nuw nsw i64 %indvars.iv, 1
  %exitcond.not = icmp eq i64 %indvars.iv.next, %wide.trip.count
  br i1 %exitcond.not, label %.loopexit, label %17, !llvm.loop !94

.loopexit:                                        ; preds = %17, %10, %9, %4
  %.0 = phi i32 [ -21, %4 ], [ -50, %9 ], [ 0, %10 ], [ 0, %17 ]
  ret i32 %.0
}